target datalayout = "e-m:e-p270:32:32-p271:32:32-p272:64:64-i64:64-i128:128-f80:128-n8:16:32:64-S128"
target triple = "x86_64-pc-linux-gnu"

; Function Attrs: inlinehint nounwind sspstrong uwtable
define internal i32 @c_jd_to_wday(i32 noundef %0) #3 {
  %2 = alloca i32, align 4
  store i32 %0, ptr %2, align 4, !tbaa !19
  %3 = load i32, ptr %2, align 4, !tbaa !19
  %4 = add nsw i32 %3, 1
  %5 = icmp slt i32 %4, 0
  br i1 %5, label %6, label %14

6:                                                ; preds = %1
  %7 = load i32, ptr %2, align 4, !tbaa !19
  %8 = add nsw i32 %7, 1
  %9 = add nsw i32 %8, 1
  %10 = sub nsw i32 0, %9
  %11 = srem i32 %10, 7
  %12 = sub nsw i32 7, %11
  %13 = sub nsw i32 %12, 1
  br label %18

14:                                               ; preds = %1
  %15 = load i32, ptr %2, align 4, !tbaa !19
  %16 = add nsw i32 %15, 1
  %17 = srem i32 %16, 7
  br label %18

18:                                               ; preds = %14, %6
  %19 = phi i32 [ %13, %6 ], [ %17, %14 ]
  ret i32 %19
}

; Function Attrs: nounwind sspstrong uwtable
define internal i32 @m_wday(ptr noundef %0) #0 {
  %2 = alloca ptr, align 8
  store ptr %0, ptr %2, align 8, !tbaa !27
  %3 = load ptr, ptr %2, align 8, !tbaa !27
  %4 = call i32 @m_local_jd(ptr noundef %3)
  %5 = call i32 @c_jd_to_wday(i32 noundef %4)
  ret i32 %5
}

; Function Attrs: nounwind sspstrong uwtable
define internal i32 @m_cwday(ptr noundef %0) #0 {
  %2 = alloca ptr, align 8
  %3 = alloca i32, align 4
  store ptr %0, ptr %2, align 8, !tbaa !27
  call void @llvm.lifetime.start.p0(i64 4, ptr %3) #23
  %4 = load ptr, ptr %2, align 8, !tbaa !27
  %5 = call i32 @m_wday(ptr noundef %4)
  store i32 %5, ptr %3, align 4, !tbaa !19
  %6 = load i32, ptr %3, align 4, !tbaa !19
  %7 = icmp eq i32 %6, 0
  br i1 %7, label %8, label %9

8:                                                ; preds = %1
  store i32 7, ptr %3, align 4, !tbaa !19
  br label %9

9:                                                ; preds = %8, %1
  %10 = load i32, ptr %3, align 4, !tbaa !19
  call void @llvm.lifetime.end.p0(i64 4, ptr %3) #23
  ret i32 %10
}